; Function Attrs: null_pointer_is_valid sspstrong uwtable
define internal void @do_addition(ptr noundef %0, ptr noundef %1, ptr noundef %2, ptr noundef %3) unnamed_addr #0 {
  %5 = alloca ptr, align 8
  call void @llvm.lifetime.start.p0(i64 8, ptr nonnull %5) #8
  %6 = tail call ptr @stnode_data(ptr noundef %2)
  %7 = tail call ptr @stnode_data(ptr noundef %3)
  %8 = call ptr @fvalue_add(ptr noundef %6, ptr noundef %7, ptr noundef nonnull %5)
  %9 = icmp eq ptr %8, null
  br i1 %9, label %10, label %16

10:                                               ; preds = %4
  %11 = call { i64, i64 } @stnode_location(ptr noundef %1)
  %12 = extractvalue { i64, i64 } %11, 0
  %13 = extractvalue { i64, i64 } %11, 1
  %14 = load ptr, ptr %5, align 8
  call void (ptr, i32, i64, i64, ptr, ...) @dfilter_fail(ptr noundef %0, i32 noundef -1, i64 %12, i64 %13, ptr noundef nonnull @.str.22, ptr noundef %14)
  %15 = load ptr, ptr %5, align 8
  call void @g_free(ptr noundef %15)
  call void @except_throw(i64 noundef 1, i64 noundef 5, ptr noundef null) #7
  unreachable

16:                                               ; preds = %4
  call void @stnode_replace(ptr noundef %1, i32 noundef 9, ptr noundef nonnull %8)
  call void @llvm.lifetime.end.p0(i64 8, ptr nonnull %5) #8
  ret void
}